target datalayout = "e-m:e-p270:32:32-p271:32:32-p272:64:64-i64:64-i128:128-f80:128-n8:16:32:64-S128"
target triple = "x86_64-pc-linux-gnu"

%"class.duckdb::BaseStatistics" = type { %"struct.duckdb::LogicalType", i8, i8, i64, %union.anon, %"class.duckdb::unique_ptr" }
%"struct.duckdb::LogicalType" = type { i8, i8, %"class.duckdb::shared_ptr" }
%"class.duckdb::shared_ptr" = type { %"class.std::shared_ptr" }
%"class.std::shared_ptr" = type { %"class.std::__shared_ptr" }
%"class.std::__shared_ptr" = type { ptr, %"class.std::__shared_count" }
%"class.std::__shared_count" = type { ptr }
%union.anon = type { %"struct.duckdb::NumericStatsData" }
%"struct.duckdb::NumericStatsData" = type { i8, i8, %"struct.duckdb::NumericValueUnion", %"struct.duckdb::NumericValueUnion" }
%"struct.duckdb::NumericValueUnion" = type { %"union.duckdb::NumericValueUnion::Val" }
%"union.duckdb::NumericValueUnion::Val" = type { %"struct.duckdb::hugeint_t" }
%"struct.duckdb::hugeint_t" = type { i64, i64 }
%"class.duckdb::unique_ptr" = type { %"class.std::unique_ptr" }
%"class.std::unique_ptr" = type { %"struct.std::__uniq_ptr_data" }
%"struct.std::__uniq_ptr_data" = type { %"class.std::__uniq_ptr_impl" }
%"class.std::__uniq_ptr_impl" = type { %"class.std::tuple" }
%"class.std::tuple" = type { %"struct.std::_Tuple_impl" }
%"struct.std::_Tuple_impl" = type { %"struct.std::_Head_base.1" }
%"struct.std::_Head_base.1" = type { ptr }

; Function Attrs: mustprogress nounwind uwtable
define void @_ZN6duckdb14BaseStatistics8CopyBaseERKS0_(ptr noundef nonnull align 8 dereferenceable(88) %0, ptr noundef nonnull align 8 dereferenceable(88) %1) #6 align 2 {
  %3 = alloca ptr, align 8
  %4 = alloca ptr, align 8
  store ptr %0, ptr %3, align 8, !tbaa !3
  store ptr %1, ptr %4, align 8, !tbaa !3
  %5 = load ptr, ptr %3, align 8
  %6 = load ptr, ptr %4, align 8, !tbaa !3
  %7 = getelementptr inbounds nuw %"class.duckdb::BaseStatistics", ptr %6, i32 0, i32 1
  %8 = load i8, ptr %7, align 8, !tbaa !43, !range !44, !noundef !45
  %9 = trunc i8 %8 to i1
  %10 = getelementptr inbounds nuw %"class.duckdb::BaseStatistics", ptr %5, i32 0, i32 1
  %11 = zext i1 %9 to i8
  store i8 %11, ptr %10, align 8, !tbaa !43
  %12 = load ptr, ptr %4, align 8, !tbaa !3
  %13 = getelementptr inbounds nuw %"class.duckdb::BaseStatistics", ptr %12, i32 0, i32 2
  %14 = load i8, ptr %13, align 1, !tbaa !46, !range !44, !noundef !45
  %15 = trunc i8 %14 to i1
  %16 = getelementptr inbounds nuw %"class.duckdb::BaseStatistics", ptr %5, i32 0, i32 2
  %17 = zext i1 %15 to i8
  store i8 %17, ptr %16, align 1, !tbaa !46
  %18 = load ptr, ptr %4, align 8, !tbaa !3
  %19 = getelementptr inbounds nuw %"class.duckdb::BaseStatistics", ptr %18, i32 0, i32 3
  %20 = load i64, ptr %19, align 8, !tbaa !12
  %21 = getelementptr inbounds nuw %"class.duckdb::BaseStatistics", ptr %5, i32 0, i32 3
  store i64 %20, ptr %21, align 8, !tbaa !12
  ret void
}