; Function Attrs: mustprogress nofree norecurse nosync nounwind willreturn memory(argmem: readwrite) uwtable
define void @_ZN6duckdb14BaseStatistics8CopyBaseERKS0_(ptr noundef nonnull writeonly align 8 captures(none) dereferenceable(88) initializes((24, 26), (32, 40)) %0, ptr noundef nonnull readonly align 8 captures(none) dereferenceable(88) %1) local_unnamed_addr #12 align 2 {
  %3 = getelementptr inbounds nuw i8, ptr %1, i64 24
  %4 = load i8, ptr %3, align 8, !tbaa !49, !range !50, !noundef !51
  %5 = getelementptr inbounds nuw i8, ptr %0, i64 24
  store i8 %4, ptr %5, align 8, !tbaa !49
  %6 = getelementptr inbounds nuw i8, ptr %1, i64 25
  %7 = load i8, ptr %6, align 1, !tbaa !52, !range !50, !noundef !51
  %8 = getelementptr inbounds nuw i8, ptr %0, i64 25
  store i8 %7, ptr %8, align 1, !tbaa !52
  %9 = getelementptr inbounds nuw i8, ptr %1, i64 32
  %10 = load i64, ptr %9, align 8, !tbaa !9
  %11 = getelementptr inbounds nuw i8, ptr %0, i64 32
  store i64 %10, ptr %11, align 8, !tbaa !9
  ret void
}